target datalayout = "e-m:e-p270:32:32-p271:32:32-p272:64:64-i64:64-i128:128-f80:128-n8:16:32:64-S128"
target triple = "x86_64-pc-linux-gnu"

%class.params_ref = type { ptr }
%"class.sls::seq_plugin" = type { %"class.sls::plugin.base", %class.seq_util, %class.arith_util, %class.seq_rewriter, %class.th_rewriter, %class.scoped_ptr_vector, %class.indexed_uint_set, i8, i32, %class.vector.6, %class.vector.7, %class.svector.8 }
%"class.sls::plugin.base" = type <{ ptr, ptr, ptr, i32 }>
%class.seq_util = type { ptr, ptr, ptr, i32, [4 x i8], %"class.seq_util::str", %"class.seq_util::rex" }
%"class.seq_util::str" = type <{ ptr, ptr, i32, [4 x i8] }>
%"class.seq_util::rex" = type { ptr, ptr, i32, %class.vector, %class.ref_vector, %"struct.seq_util::rex::info", %"struct.seq_util::rex::info" }
%class.vector = type { ptr }
%class.ref_vector = type { %class.ref_vector_core }
%class.ref_vector_core = type { %class.ref_manager_wrapper, %class.ptr_vector }
%class.ref_manager_wrapper = type { ptr }
%class.ptr_vector = type { %class.vector.0 }
%class.vector.0 = type { ptr }
%"struct.seq_util::rex::info" = type { i32, i8, i32, i32 }
%class.arith_util = type { ptr, ptr }
%class.seq_rewriter = type <{ %class.seq_util, %class.arith_util, %class.bool_rewriter, %class.re2automaton, %"class.seq_rewriter::op_cache", %class.ref_vector, %class.ref_vector, %class.ref_vector, i8, [7 x i8] }>
%class.bool_rewriter = type { ptr, i8, i8, i8, i8, i8, i8, i32, i8, i32, i32, i8, %class.ptr_vector, %class.ptr_vector, %class.svector, %class.svector }
%class.svector = type { %class.vector.1 }
%class.vector.1 = type { ptr }
%class.re2automaton = type { ptr, [8 x i8], %class.seq_util, %class.scoped_ptr, %class.scoped_ptr.2, %class.scoped_ptr.3 }
%class.scoped_ptr = type { ptr }
%class.scoped_ptr.2 = type { ptr }
%class.scoped_ptr.3 = type { ptr }
%"class.seq_rewriter::op_cache" = type { i32, %class.ref_vector, %class.hashtable }
%class.hashtable = type { %class.core_hashtable.base, [4 x i8] }
%class.core_hashtable.base = type <{ ptr, i32, i32, i32 }>
%class.th_rewriter = type { ptr, %class.params_ref }
%class.scoped_ptr_vector = type { %class.ptr_vector.4 }
%class.ptr_vector.4 = type { %class.vector.5 }
%class.vector.5 = type { ptr }
%class.indexed_uint_set = type { i32, %class.svector, %class.svector }
%class.vector.6 = type { ptr }
%class.vector.7 = type { ptr }
%class.svector.8 = type { %class.vector.9 }
%class.vector.9 = type { ptr }
%class.zstring = type { %class.buffer }
%class.buffer = type { ptr, i32, i32, [64 x i8] }

; Function Attrs: mustprogress nounwind uwtable
define linkonce_odr hidden noundef i32 @_ZNK6bufferIjLb1ELj16EE4sizeEv(ptr noundef nonnull align 8 dereferenceable(80) %0) #5 comdat align 2 {
  %2 = alloca ptr, align 8
  store ptr %0, ptr %2, align 8, !tbaa !453
  %3 = load ptr, ptr %2, align 8
  %4 = getelementptr inbounds nuw %class.buffer, ptr %3, i32 0, i32 1
  %5 = load i32, ptr %4, align 8, !tbaa !456
  ret i32 %5
}

; Function Attrs: mustprogress nounwind uwtable
define linkonce_odr hidden noundef i32 @_ZNK7zstring6lengthEv(ptr noundef nonnull align 8 dereferenceable(80) %0) #5 comdat align 2 {
  %2 = alloca ptr, align 8
  store ptr %0, ptr %2, align 8, !tbaa !150
  %3 = load ptr, ptr %2, align 8
  %4 = getelementptr inbounds nuw %class.zstring, ptr %3, i32 0, i32 0
  %5 = call noundef i32 @_ZNK6bufferIjLb1ELj16EE4sizeEv(ptr noundef nonnull align 8 dereferenceable(80) %4)
  ret i32 %5
}

; Function Attrs: mustprogress uwtable
define hidden void @_ZN3sls10seq_plugin16add_edit_updatesERK10ptr_vectorI4exprERK7zstringS8_RK8uint_setj(ptr noundef nonnull align 8 dereferenceable(768) %0, ptr noundef nonnull align 8 dereferenceable(8) %1, ptr noundef nonnull align 8 dereferenceable(80) %2, ptr noundef nonnull align 8 dereferenceable(80) %3, ptr noundef nonnull align 8 dereferenceable(8) %4, i32 noundef %5) #4 align 2 {
  %7 = alloca ptr, align 8
  %8 = alloca ptr, align 8
  %9 = alloca ptr, align 8
  %10 = alloca ptr, align 8
  %11 = alloca ptr, align 8
  %12 = alloca i32, align 4
  store ptr %0, ptr %7, align 8, !tbaa !3
  store ptr %1, ptr %8, align 8, !tbaa !141
  store ptr %2, ptr %9, align 8, !tbaa !150
  store ptr %3, ptr %10, align 8, !tbaa !150
  store ptr %4, ptr %11, align 8, !tbaa !243
  store i32 %5, ptr %12, align 4, !tbaa !130
  %13 = load ptr, ptr %7, align 8
  %14 = getelementptr inbounds nuw %"class.sls::seq_plugin", ptr %13, i32 0, i32 8
  %15 = load i32, ptr %14, align 4, !tbaa !72
  %16 = icmp eq i32 %15, 0
  br i1 %16, label %17, label %22

17:                                               ; preds = %6
  %18 = load ptr, ptr %8, align 8, !tbaa !141
  %19 = load ptr, ptr %9, align 8, !tbaa !150
  %20 = load ptr, ptr %10, align 8, !tbaa !150
  %21 = load ptr, ptr %11, align 8, !tbaa !243
  call void @_ZN3sls10seq_plugin21add_char_edit_updatesERK10ptr_vectorI4exprERK7zstringS8_RK8uint_set(ptr noundef nonnull align 8 dereferenceable(768) %13, ptr noundef nonnull align 8 dereferenceable(8) %18, ptr noundef nonnull align 8 dereferenceable(80) %19, ptr noundef nonnull align 8 dereferenceable(80) %20, ptr noundef nonnull align 8 dereferenceable(8) %21)
  br label %50

22:                                               ; preds = %6
  %23 = getelementptr inbounds nuw %"class.sls::seq_plugin", ptr %13, i32 0, i32 8
  %24 = load i32, ptr %23, align 4, !tbaa !72
  %25 = icmp eq i32 %24, 1
  br i1 %25, label %26, label %31

26:                                               ; preds = %22
  %27 = load ptr, ptr %8, align 8, !tbaa !141
  %28 = load ptr, ptr %9, align 8, !tbaa !150
  %29 = load ptr, ptr %10, align 8, !tbaa !150
  %30 = load ptr, ptr %11, align 8, !tbaa !243
  call void @_ZN3sls10seq_plugin23add_substr_edit_updatesERK10ptr_vectorI4exprERK7zstringS8_RK8uint_set(ptr noundef nonnull align 8 dereferenceable(768) %13, ptr noundef nonnull align 8 dereferenceable(8) %27, ptr noundef nonnull align 8 dereferenceable(80) %28, ptr noundef nonnull align 8 dereferenceable(80) %29, ptr noundef nonnull align 8 dereferenceable(8) %30)
  br label %49

31:                                               ; preds = %22
  %32 = load ptr, ptr %9, align 8, !tbaa !150
  %33 = call noundef i32 @_ZNK7zstring6lengthEv(ptr noundef nonnull align 8 dereferenceable(80) %32)
  %34 = udiv i32 %33, 3
  %35 = load i32, ptr %12, align 4, !tbaa !130
  %36 = sub i32 %35, 1
  %37 = icmp uge i32 %34, %36
  br i1 %37, label %38, label %43

38:                                               ; preds = %31
  %39 = load ptr, ptr %8, align 8, !tbaa !141
  %40 = load ptr, ptr %9, align 8, !tbaa !150
  %41 = load ptr, ptr %10, align 8, !tbaa !150
  %42 = load ptr, ptr %11, align 8, !tbaa !243
  call void @_ZN3sls10seq_plugin21add_char_edit_updatesERK10ptr_vectorI4exprERK7zstringS8_RK8uint_set(ptr noundef nonnull align 8 dereferenceable(768) %13, ptr noundef nonnull align 8 dereferenceable(8) %39, ptr noundef nonnull align 8 dereferenceable(80) %40, ptr noundef nonnull align 8 dereferenceable(80) %41, ptr noundef nonnull align 8 dereferenceable(8) %42)
  br label %48

43:                                               ; preds = %31
  %44 = load ptr, ptr %8, align 8, !tbaa !141
  %45 = load ptr, ptr %9, align 8, !tbaa !150
  %46 = load ptr, ptr %10, align 8, !tbaa !150
  %47 = load ptr, ptr %11, align 8, !tbaa !243
  call void @_ZN3sls10seq_plugin23add_substr_edit_updatesERK10ptr_vectorI4exprERK7zstringS8_RK8uint_set(ptr noundef nonnull align 8 dereferenceable(768) %13, ptr noundef nonnull align 8 dereferenceable(8) %44, ptr noundef nonnull align 8 dereferenceable(80) %45, ptr noundef nonnull align 8 dereferenceable(80) %46, ptr noundef nonnull align 8 dereferenceable(8) %47)
  br label %48

48:                                               ; preds = %43, %38
  br label %49

49:                                               ; preds = %48, %26
  br label %50

50:                                               ; preds = %49, %17
  ret void
}