; Function Attrs: mustprogress uwtable
define hidden void @_ZN3sls10seq_plugin16add_edit_updatesERK10ptr_vectorI4exprERK7zstringS8_RK8uint_setj(ptr noundef nonnull align 8 dereferenceable(768) %0, ptr noundef nonnull readonly align 8 captures(none) dereferenceable(8) %1, ptr noundef nonnull readonly align 8 captures(none) dereferenceable(80) %2, ptr noundef nonnull align 8 dereferenceable(80) %3, ptr noundef nonnull align 8 dereferenceable(8) %4, i32 noundef %5) local_unnamed_addr #3 align 2 {
  %7 = getelementptr inbounds nuw i8, ptr %0, i64 740
  %8 = load i32, ptr %7, align 4, !tbaa !94
  switch i32 %8, label %11 [
    i32 0, label %9
    i32 1, label %10
  ]

9:                                                ; preds = %6
  tail call void @_ZN3sls10seq_plugin21add_char_edit_updatesERK10ptr_vectorI4exprERK7zstringS8_RK8uint_set(ptr noundef nonnull align 8 dereferenceable(768) %0, ptr noundef nonnull align 8 dereferenceable(8) %1, ptr noundef nonnull align 8 dereferenceable(80) %2, ptr noundef nonnull align 8 dereferenceable(80) %3, ptr noundef nonnull align 8 dereferenceable(8) %4)
  br label %18

10:                                               ; preds = %6
  tail call void @_ZN3sls10seq_plugin23add_substr_edit_updatesERK10ptr_vectorI4exprERK7zstringS8_RK8uint_set(ptr noundef nonnull align 8 dereferenceable(768) %0, ptr noundef nonnull align 8 dereferenceable(8) %1, ptr nonnull align 8 poison, ptr noundef nonnull align 8 dereferenceable(80) %3, ptr nonnull align 8 poison)
  br label %18

11:                                               ; preds = %6
  %12 = getelementptr inbounds nuw i8, ptr %2, i64 8
  %13 = load i32, ptr %12, align 8, !tbaa !182
  %14 = udiv i32 %13, 3
  %15 = add i32 %5, -1
  %.not = icmp ult i32 %14, %15
  br i1 %.not, label %17, label %16

16:                                               ; preds = %11
  tail call void @_ZN3sls10seq_plugin21add_char_edit_updatesERK10ptr_vectorI4exprERK7zstringS8_RK8uint_set(ptr noundef nonnull align 8 dereferenceable(768) %0, ptr noundef nonnull align 8 dereferenceable(8) %1, ptr noundef nonnull align 8 dereferenceable(80) %2, ptr noundef nonnull align 8 dereferenceable(80) %3, ptr noundef nonnull align 8 dereferenceable(8) %4)
  br label %18

17:                                               ; preds = %11
  tail call void @_ZN3sls10seq_plugin23add_substr_edit_updatesERK10ptr_vectorI4exprERK7zstringS8_RK8uint_set(ptr noundef nonnull align 8 dereferenceable(768) %0, ptr noundef nonnull align 8 dereferenceable(8) %1, ptr nonnull align 8 poison, ptr noundef nonnull align 8 dereferenceable(80) %3, ptr nonnull align 8 poison)
  br label %18

18:                                               ; preds = %10, %17, %16, %9
  ret void
}